target datalayout = "e-m:e-p270:32:32-p271:32:32-p272:64:64-i64:64-i128:128-f80:128-n8:16:32:64-S128"
target triple = "x86_64-unknown-linux-gnu"

@_ZN6icu_755Grego12MONTH_LENGTHE = external constant [24 x i8], align 16

; Function Attrs: mustprogress nounwind uwtable
define linkonce_odr noundef signext i8 @_ZN6icu_755Grego10isLeapYearEi(i32 noundef %year) #0 comdat align 2 {
entry:
  %year.addr = alloca i32, align 4
  store i32 %year, ptr %year.addr, align 4
  %0 = load i32, ptr %year.addr, align 4
  %and = and i32 %0, 3
  %cmp = icmp eq i32 %and, 0
  br i1 %cmp, label %land.rhs, label %land.end

land.rhs:                                         ; preds = %entry
  %1 = load i32, ptr %year.addr, align 4
  %rem = srem i32 %1, 100
  %cmp1 = icmp ne i32 %rem, 0
  br i1 %cmp1, label %lor.end, label %lor.rhs

lor.rhs:                                          ; preds = %land.rhs
  %2 = load i32, ptr %year.addr, align 4
  %rem2 = srem i32 %2, 400
  %cmp3 = icmp eq i32 %rem2, 0
  br label %lor.end

lor.end:                                          ; preds = %lor.rhs, %land.rhs
  %3 = phi i1 [ true, %land.rhs ], [ %cmp3, %lor.rhs ]
  br label %land.end

land.end:                                         ; preds = %lor.end, %entry
  %4 = phi i1 [ false, %entry ], [ %3, %lor.end ]
  %conv = zext i1 %4 to i8
  ret i8 %conv
}

; Function Attrs: mustprogress uwtable
define linkonce_odr noundef signext i8 @_ZN6icu_755Grego11monthLengthEii(i32 noundef %year, i32 noundef %month) #1 comdat align 2 {
entry:
  %year.addr = alloca i32, align 4
  %month.addr = alloca i32, align 4
  store i32 %year, ptr %year.addr, align 4
  store i32 %month, ptr %month.addr, align 4
  %0 = load i32, ptr %month.addr, align 4
  %1 = load i32, ptr %year.addr, align 4
  %call = call noundef signext i8 @_ZN6icu_755Grego10isLeapYearEi(i32 noundef %1)
  %tobool = icmp ne i8 %call, 0
  %cond = select i1 %tobool, i32 12, i32 0
  %add = add nsw i32 %0, %cond
  %idxprom = sext i32 %add to i64
  %arrayidx = getelementptr inbounds [24 x i8], ptr @_ZN6icu_755Grego12MONTH_LENGTHE, i64 0, i64 %idxprom
  %2 = load i8, ptr %arrayidx, align 1
  ret i8 %2
}

; Function Attrs: mustprogress nounwind uwtable
define internal noundef signext i8 @_ZL9U_SUCCESS10UErrorCode(i32 noundef %code) #0 {
entry:
  %code.addr = alloca i32, align 4
  store i32 %code, ptr %code.addr, align 4
  %0 = load i32, ptr %code.addr, align 4
  %cmp = icmp sle i32 %0, 0
  %conv = zext i1 %cmp to i8
  ret i8 %conv
}

; Function Attrs: mustprogress uwtable
define noundef i32 @_ZNK6icu_7513OlsonTimeZone9getOffsetEhiiihiR10UErrorCode(ptr noundef nonnull align 8 dereferenceable(224) %this, i8 noundef zeroext %era, i32 noundef %year, i32 noundef %month, i32 noundef %dom, i8 noundef zeroext %dow, i32 noundef %millis, ptr noundef nonnull align 4 dereferenceable(4) %ec) unnamed_addr #1 align 2 {
entry:
  %retval = alloca i32, align 4
  %this.addr = alloca ptr, align 8
  %era.addr = alloca i8, align 1
  %year.addr = alloca i32, align 4
  %month.addr = alloca i32, align 4
  %dom.addr = alloca i32, align 4
  %dow.addr = alloca i8, align 1
  %millis.addr = alloca i32, align 4
  %ec.addr = alloca ptr, align 8
  store ptr %this, ptr %this.addr, align 8
  store i8 %era, ptr %era.addr, align 1
  store i32 %year, ptr %year.addr, align 4
  store i32 %month, ptr %month.addr, align 4
  store i32 %dom, ptr %dom.addr, align 4
  store i8 %dow, ptr %dow.addr, align 1
  store i32 %millis, ptr %millis.addr, align 4
  store ptr %ec, ptr %ec.addr, align 8
  %this1 = load ptr, ptr %this.addr, align 8
  %0 = load i32, ptr %month.addr, align 4
  %cmp = icmp slt i32 %0, 0
  br i1 %cmp, label %if.then, label %lor.lhs.false

lor.lhs.false:                                    ; preds = %entry
  %1 = load i32, ptr %month.addr, align 4
  %cmp2 = icmp sgt i32 %1, 11
  br i1 %cmp2, label %if.then, label %if.else

if.then:                                          ; preds = %lor.lhs.false, %entry
  %2 = load ptr, ptr %ec.addr, align 8
  %3 = load i32, ptr %2, align 4
  %call = call noundef signext i8 @_ZL9U_SUCCESS10UErrorCode(i32 noundef %3)
  %tobool = icmp ne i8 %call, 0
  br i1 %tobool, label %if.then3, label %if.end

if.then3:                                         ; preds = %if.then
  %4 = load ptr, ptr %ec.addr, align 8
  store i32 1, ptr %4, align 4
  br label %if.end

if.end:                                           ; preds = %if.then3, %if.then
  store i32 0, ptr %retval, align 4
  br label %return

if.else:                                          ; preds = %lor.lhs.false
  %5 = load i8, ptr %era.addr, align 1
  %6 = load i32, ptr %year.addr, align 4
  %7 = load i32, ptr %month.addr, align 4
  %8 = load i32, ptr %dom.addr, align 4
  %9 = load i8, ptr %dow.addr, align 1
  %10 = load i32, ptr %millis.addr, align 4
  %11 = load i32, ptr %year.addr, align 4
  %12 = load i32, ptr %month.addr, align 4
  %call4 = call noundef signext i8 @_ZN6icu_755Grego11monthLengthEii(i32 noundef %11, i32 noundef %12)
  %conv = sext i8 %call4 to i32
  %13 = load ptr, ptr %ec.addr, align 8
  %vtable = load ptr, ptr %this1, align 8
  %vfn = getelementptr inbounds ptr, ptr %vtable, i64 5
  %14 = load ptr, ptr %vfn, align 8
  %call5 = call noundef i32 %14(ptr noundef nonnull align 8 dereferenceable(224) %this1, i8 noundef zeroext %5, i32 noundef %6, i32 noundef %7, i32 noundef %8, i8 noundef zeroext %9, i32 noundef %10, i32 noundef %conv, ptr noundef nonnull align 4 dereferenceable(4) %13)
  store i32 %call5, ptr %retval, align 4
  br label %return

return:                                           ; preds = %if.else, %if.end
  %15 = load i32, ptr %retval, align 4
  ret i32 %15
}